; Function Attrs: mustprogress uwtable
define noundef ptr @ggml_backend_dev_by_type(i32 noundef %0) local_unnamed_addr #0 personality ptr @__gxx_personality_v0 {
  br label %2

2:                                                ; preds = %18, %1
  %.010 = phi i64 [ 0, %1 ], [ %21, %18 ]
  %3 = load atomic i8, ptr @_ZGVZL7get_regvE3reg acquire, align 8
  %4 = icmp eq i8 %3, 0
  br i1 %4, label %5, label %ggml_backend_dev_count.exit, !prof !3

5:                                                ; preds = %2
  %6 = tail call i32 @__cxa_guard_acquire(ptr nonnull @_ZGVZL7get_regvE3reg) #26
  %.not.i.i = icmp eq i32 %6, 0
  br i1 %.not.i.i, label %ggml_backend_dev_count.exit, label %7

7:                                                ; preds = %5
  invoke void @_ZN21ggml_backend_registryC2Ev(ptr noundef nonnull align 8 dereferenceable(48) @_ZZL7get_regvE3reg)
          to label %8 unwind label %10

8:                                                ; preds = %7
  %9 = tail call i32 @__cxa_atexit(ptr nonnull @_ZN21ggml_backend_registryD2Ev, ptr nonnull @_ZZL7get_regvE3reg, ptr nonnull @__dso_handle) #26
  tail call void @__cxa_guard_release(ptr nonnull @_ZGVZL7get_regvE3reg) #26
  br label %ggml_backend_dev_count.exit

10:                                               ; preds = %7
  %11 = landingpad { ptr, i32 }
          cleanup
  tail call void @__cxa_guard_abort(ptr nonnull @_ZGVZL7get_regvE3reg) #26
  resume { ptr, i32 } %11

ggml_backend_dev_count.exit:                      ; preds = %2, %5, %8
  %12 = load ptr, ptr getelementptr inbounds nuw (i8, ptr @_ZZL7get_regvE3reg, i64 32), align 8, !tbaa !22
  %13 = load ptr, ptr getelementptr inbounds nuw (i8, ptr @_ZZL7get_regvE3reg, i64 24), align 8, !tbaa !29
  %14 = ptrtoint ptr %12 to i64
  %15 = ptrtoint ptr %13 to i64
  %16 = sub i64 %14, %15
  %17 = ashr exact i64 %16, 3
  %.not11 = icmp ult i64 %.010, %17
  br i1 %.not11, label %18, label %22

18:                                               ; preds = %ggml_backend_dev_count.exit
  %19 = tail call ptr @ggml_backend_dev_get(i64 noundef %.010)
  %20 = tail call i32 @ggml_backend_dev_type(ptr noundef %19)
  %.not = icmp eq i32 %20, %0
  %21 = add nuw i64 %.010, 1
  br i1 %.not, label %22, label %2, !llvm.loop !37

22:                                               ; preds = %ggml_backend_dev_count.exit, %18
  %spec.select = phi ptr [ %19, %18 ], [ null, %ggml_backend_dev_count.exit ]
  ret ptr %spec.select
}